; Function Attrs: mustprogress uwtable
define noundef ptr @_ZNK6icu_7515Normalizer2Impl20findNextCompBoundaryEPKDsS2_a(ptr nocapture noundef nonnull readonly align 8 dereferenceable(80) %this, ptr noundef readonly %p, ptr noundef readnone %limit, i8 noundef signext %onlyContiguous) local_unnamed_addr #0 align 2 {
entry:
  %normTrie = getelementptr inbounds i8, ptr %this, i64 32
  %minCompNoMaybeCP.i = getelementptr inbounds i8, ptr %this, i64 10
  %minNoNoCompNoMaybeCC.i.i = getelementptr inbounds i8, ptr %this, i64 22
  %limitNoNo.i.i.i = getelementptr inbounds i8, ptr %this, i64 26
  %minMaybeYes.i.i.i = getelementptr inbounds i8, ptr %this, i64 30
  %tobool.not.i = icmp eq i8 %onlyContiguous, 0
  %extraData.i.i.i = getelementptr inbounds i8, ptr %this, i64 48
  br label %while.cond

while.cond:                                       ; preds = %_ZNK6icu_7515Normalizer2Impl26norm16HasCompBoundaryAfterEta.exit, %entry
  %p.addr.0 = phi ptr [ %p, %entry ], [ %p.addr.1, %_ZNK6icu_7515Normalizer2Impl26norm16HasCompBoundaryAfterEta.exit ]
  %cmp.not = icmp eq ptr %p.addr.0, %limit
  br i1 %cmp.not, label %return, label %while.body

while.body:                                       ; preds = %while.cond
  %incdec.ptr = getelementptr inbounds i8, ptr %p.addr.0, i64 2
  %0 = load i16, ptr %p.addr.0, align 2
  %conv = zext i16 %0 to i32
  %and = and i32 %conv, 63488
  %cmp2 = icmp eq i32 %and, 55296
  br i1 %cmp2, label %if.else, label %if.then

if.then:                                          ; preds = %while.body
  %1 = load ptr, ptr %normTrie, align 8
  %2 = load ptr, ptr %1, align 8
  %shr = lshr i32 %conv, 6
  %idxprom = zext nneg i32 %shr to i64
  %arrayidx = getelementptr inbounds i16, ptr %2, i64 %idxprom
  %3 = load i16, ptr %arrayidx, align 2
  %conv3 = zext i16 %3 to i32
  %and4 = and i32 %conv, 63
  %add = add nuw nsw i32 %and4, %conv3
  br label %if.end25

if.else:                                          ; preds = %while.body
  %and5 = and i32 %conv, 1024
  %cmp6 = icmp ne i32 %and5, 0
  %cmp7.not = icmp eq ptr %incdec.ptr, %limit
  %or.cond = select i1 %cmp6, i1 true, i1 %cmp7.not
  br i1 %or.cond, label %if.else.if.else21_crit_edge, label %land.lhs.true8

if.else.if.else21_crit_edge:                      ; preds = %if.else
  %.pre = load ptr, ptr %normTrie, align 8
  br label %if.else21

land.lhs.true8:                                   ; preds = %if.else
  %4 = load i16, ptr %incdec.ptr, align 2
  %conv9 = zext i16 %4 to i32
  %and10 = and i32 %conv9, 64512
  %cmp11 = icmp eq i32 %and10, 56320
  %.pre24 = load ptr, ptr %normTrie, align 8
  br i1 %cmp11, label %if.then12, label %if.else21

if.then12:                                        ; preds = %land.lhs.true8
  %incdec.ptr13 = getelementptr inbounds i8, ptr %p.addr.0, i64 4
  %shl = shl nuw nsw i32 %conv, 10
  %add15 = add nsw i32 %shl, -56613888
  %sub = add nuw nsw i32 %add15, %conv9
  %highStart = getelementptr inbounds i8, ptr %.pre24, i64 24
  %5 = load i32, ptr %highStart, align 8
  %cmp17.not = icmp slt i32 %sub, %5
  br i1 %cmp17.not, label %cond.false, label %cond.true

cond.true:                                        ; preds = %if.then12
  %dataLength = getelementptr inbounds i8, ptr %.pre24, i64 20
  %6 = load i32, ptr %dataLength, align 4
  %sub19 = add nsw i32 %6, -2
  br label %if.end25

cond.false:                                       ; preds = %if.then12
  %call = tail call i32 @ucptrie_internalSmallIndex_75(ptr noundef nonnull %.pre24, i32 noundef %sub)
  %.pre25 = load ptr, ptr %normTrie, align 8
  br label %if.end25

if.else21:                                        ; preds = %if.else.if.else21_crit_edge, %land.lhs.true8
  %7 = phi ptr [ %.pre, %if.else.if.else21_crit_edge ], [ %.pre24, %land.lhs.true8 ]
  %dataLength23 = getelementptr inbounds i8, ptr %7, i64 20
  %8 = load i32, ptr %dataLength23, align 4
  %sub24 = add nsw i32 %8, -1
  br label %if.end25

if.end25:                                         ; preds = %cond.true, %cond.false, %if.else21, %if.then
  %9 = phi ptr [ %7, %if.else21 ], [ %1, %if.then ], [ %.pre25, %cond.false ], [ %.pre24, %cond.true ]
  %c.0 = phi i32 [ %conv, %if.else21 ], [ %conv, %if.then ], [ %sub, %cond.false ], [ %sub, %cond.true ]
  %p.addr.1 = phi ptr [ %incdec.ptr, %if.else21 ], [ %incdec.ptr, %if.then ], [ %incdec.ptr13, %cond.false ], [ %incdec.ptr13, %cond.true ]
  %__index.0 = phi i32 [ %sub24, %if.else21 ], [ %add, %if.then ], [ %call, %cond.false ], [ %sub19, %cond.true ]
  %data = getelementptr inbounds i8, ptr %9, i64 8
  %10 = load ptr, ptr %data, align 8
  %idxprom27 = sext i32 %__index.0 to i64
  %arrayidx28 = getelementptr inbounds i16, ptr %10, i64 %idxprom27
  %11 = load i16, ptr %arrayidx28, align 2
  %12 = load i16, ptr %minCompNoMaybeCP.i, align 2
  %conv.i = zext i16 %12 to i32
  %cmp.i = icmp ult i32 %c.0, %conv.i
  %13 = load i16, ptr %minNoNoCompNoMaybeCC.i.i, align 2
  %cmp.i.i = icmp ugt i16 %13, %11
  %or.cond.i = select i1 %cmp.i, i1 true, i1 %cmp.i.i
  br i1 %or.cond.i, label %return, label %_ZNK6icu_7515Normalizer2Impl21hasCompBoundaryBeforeEit.exit

_ZNK6icu_7515Normalizer2Impl21hasCompBoundaryBeforeEit.exit: ; preds = %if.end25
  %14 = load i16, ptr %limitNoNo.i.i.i, align 2
  %cmp.not.i.i.i = icmp ugt i16 %14, %11
  %15 = load i16, ptr %minMaybeYes.i.i.i, align 2
  %cmp5.i.i.i = icmp ule i16 %15, %11
  %narrow.i.i.i.not = select i1 %cmp.not.i.i.i, i1 true, i1 %cmp5.i.i.i
  br i1 %narrow.i.i.i.not, label %if.end31, label %return

if.end31:                                         ; preds = %_ZNK6icu_7515Normalizer2Impl21hasCompBoundaryBeforeEit.exit
  %16 = and i16 %11, 1
  %cmp.not.i = icmp eq i16 %16, 0
  br i1 %cmp.not.i, label %_ZNK6icu_7515Normalizer2Impl26norm16HasCompBoundaryAfterEta.exit, label %land.rhs.i

land.rhs.i:                                       ; preds = %if.end31
  br i1 %tobool.not.i, label %return, label %lor.rhs.i

lor.rhs.i:                                        ; preds = %land.rhs.i
  %cmp.i.not.i.i = icmp eq i16 %11, 1
  br i1 %cmp.i.not.i.i, label %_ZNK6icu_7515Normalizer2Impl31isTrailCC01ForCompBoundaryAfterEt.exit.i, label %lor.rhs.i.i17

lor.rhs.i.i17:                                    ; preds = %lor.rhs.i
  br i1 %cmp.not.i.i.i, label %cond.false.i.i, label %cond.true.i.i

cond.true.i.i:                                    ; preds = %lor.rhs.i.i17
  %17 = and i16 %11, 6
  %cmp.i.i19 = icmp ult i16 %17, 3
  br label %_ZNK6icu_7515Normalizer2Impl31isTrailCC01ForCompBoundaryAfterEt.exit.i

cond.false.i.i:                                   ; preds = %lor.rhs.i.i17
  %18 = load ptr, ptr %extraData.i.i.i, align 8
  %19 = lshr i16 %11, 1
  %idx.ext.i.i.i = zext nneg i16 %19 to i64
  %add.ptr.i.i.i = getelementptr inbounds i16, ptr %18, i64 %idx.ext.i.i.i
  %20 = load i16, ptr %add.ptr.i.i.i, align 2
  %cmp6.i.i = icmp ult i16 %20, 512
  br label %_ZNK6icu_7515Normalizer2Impl31isTrailCC01ForCompBoundaryAfterEt.exit.i

_ZNK6icu_7515Normalizer2Impl31isTrailCC01ForCompBoundaryAfterEt.exit.i: ; preds = %cond.false.i.i, %cond.true.i.i, %lor.rhs.i
  %21 = phi i1 [ true, %lor.rhs.i ], [ %cmp.i.i19, %cond.true.i.i ], [ %cmp6.i.i, %cond.false.i.i ]
  %conv7.i.i = zext i1 %21 to i8
  br label %_ZNK6icu_7515Normalizer2Impl26norm16HasCompBoundaryAfterEta.exit

_ZNK6icu_7515Normalizer2Impl26norm16HasCompBoundaryAfterEta.exit: ; preds = %if.end31, %_ZNK6icu_7515Normalizer2Impl31isTrailCC01ForCompBoundaryAfterEt.exit.i
  %conv3.i = phi i8 [ 0, %if.end31 ], [ %conv7.i.i, %_ZNK6icu_7515Normalizer2Impl31isTrailCC01ForCompBoundaryAfterEt.exit.i ]
  %tobool33.not = icmp eq i8 %conv3.i, 0
  br i1 %tobool33.not, label %while.cond, label %return, !llvm.loop !38

return:                                           ; preds = %land.rhs.i, %if.end25, %while.cond, %_ZNK6icu_7515Normalizer2Impl26norm16HasCompBoundaryAfterEta.exit, %_ZNK6icu_7515Normalizer2Impl21hasCompBoundaryBeforeEit.exit
  %retval.0 = phi ptr [ %p.addr.0, %_ZNK6icu_7515Normalizer2Impl21hasCompBoundaryBeforeEit.exit ], [ %p.addr.1, %_ZNK6icu_7515Normalizer2Impl26norm16HasCompBoundaryAfterEta.exit ], [ %limit, %while.cond ], [ %p.addr.0, %if.end25 ], [ %p.addr.1, %land.rhs.i ]
  ret ptr %retval.0
}